TN:
SF:/home/nevena/VS/2048/src/Game.cpp
FN:7,_ZN4GameC2Ev
FN:29,_ZN4GameD2Ev
FN:33,_ZN4Game4initEv
FN:41,_ZN4Game12drawHBarrierEi
FN:52,_ZN4Game13drawGameBoardEv
FN:125,_ZN4Game6updateEv
FN:131,_ZN4Game11checkFinishEv
FN:166,_ZN4Game11fillRandPosERSt6vectorIS0_IiSaIiEESaIS2_EE
FN:181,_ZN4Game6setKeyEi
FN:186,_ZNK4Game6getKeyEv
FN:191,_ZN4Game8setPointEi
FN:196,_ZNK4Game8getPointEv
FN:201,_ZNK4Game12getGameBoardEv
FN:206,_ZN4Game12setGameBoardESt6vectorIS0_IiSaIiEESaIS2_EE
FN:211,_ZNK4Game8isFinishEv
FNDA:3,_ZNK4Game8isFinishEv
FNDA:0,_ZN4Game6updateEv
FNDA:36,_ZN4Game12setGameBoardESt6vectorIS0_IiSaIiEESaIS2_EE
FNDA:1,_ZN4Game13drawGameBoardEv
FNDA:8,_ZN4Game11fillRandPosERSt6vectorIS0_IiSaIiEESaIS2_EE
FNDA:3,_ZN4Game11checkFinishEv
FNDA:5,_ZN4Game12drawHBarrierEi
FNDA:0,_ZN4Game6setKeyEi
FNDA:37,_ZN4GameD2Ev
FNDA:4,_ZN4Game4initEv
FNDA:0,_ZNK4Game6getKeyEv
FNDA:28,_ZNK4Game8getPointEv
FNDA:37,_ZN4GameC2Ev
FNDA:28,_ZN4Game8setPointEi
FNDA:17,_ZNK4Game12getGameBoardEv
FNF:15
FNH:12
DA:7,37
DA:9,37
DA:10,37
DA:12,37
DA:14,185
DA:16,148
DA:18,148
DA:20,888
DA:22,740
DA:25,148
DA:26,148
DA:27,37
DA:29,37
DA:31,37
DA:33,4
DA:35,12
DA:37,8
DA:39,4
DA:41,5
DA:43,5
DA:44,30
DA:46,25
DA:47,25
DA:49,5
DA:50,5
DA:52,1
DA:54,1
DA:55,1
DA:56,5
DA:58,4
DA:59,4
DA:60,24
DA:62,20
DA:63,20
DA:64,20
DA:65,20
DA:67,12
DA:71,8
DA:73,1
DA:75,1
DA:77,1
DA:78,1
DA:80,1
DA:82,1
DA:83,1
DA:85,1
DA:87,1
DA:88,1
DA:90,1
DA:92,1
DA:93,1
DA:95,1
DA:97,1
DA:98,1
DA:100,1
DA:102,1
DA:103,1
DA:105,1
DA:107,1
DA:108,1
DA:110,1
DA:112,1
DA:114,8
DA:115,8
DA:117,20
DA:119,4
DA:121,1
DA:122,1
DA:123,1
DA:125,0
DA:127,0
DA:128,0
DA:129,0
DA:131,3
DA:133,13
DA:135,11
DA:136,11
DA:138,1
DA:142,8
DA:144,38
DA:146,32
DA:148,27
DA:150,0
DA:154,32
DA:156,26
DA:158,1
DA:163,1
DA:166,8
DA:170,8
DA:171,8
DA:173,8
DA:175,8
DA:176,8
DA:178,0
DA:179,8
DA:181,0
DA:183,0
DA:184,0
DA:186,0
DA:188,0
DA:191,28
DA:193,28
DA:194,28
DA:196,28
DA:198,28
DA:201,17
DA:203,17
DA:206,36
DA:208,36
DA:209,36
DA:211,3
DA:213,3
LF:112
LH:101
end_of_record
TN:
SF:/home/nevena/VS/2048/src/Kbhit.cpp
FN:4,_ZN5KbhitC2Ev
FN:17,_ZN5KbhitD2Ev
FN:22,_ZN5Kbhit5kbhitEv
FN:42,_ZN5Kbhit5getchEv
FNDA:0,_ZN5Kbhit5getchEv
FNDA:0,_ZN5KbhitC2Ev
FNDA:0,_ZN5Kbhit5kbhitEv
FNDA:0,_ZN5KbhitD2Ev
FNF:4
FNH:0
DA:4,0
DA:6,0
DA:7,0
DA:8,0
DA:9,0
DA:10,0
DA:11,0
DA:12,0
DA:13,0
DA:14,0
DA:15,0
DA:17,0
DA:19,0
DA:20,0
DA:22,0
DA:27,0
DA:28,0
DA:29,0
DA:30,0
DA:31,0
DA:32,0
DA:34,0
DA:36,0
DA:37,0
DA:39,0
DA:42,0
DA:46,0
DA:48,0
DA:49,0
DA:50,0
DA:52,0
LF:31
LH:0
end_of_record
TN:
SF:/home/nevena/VS/2048/src/KeyPushManager.cpp
FN:3,_ZN14KeyPushManagerC2ER4Game
FN:8,_ZN14KeyPushManager11waitKeyPushEv
FN:17,_ZN14KeyPushManager23onKeyboardHitRefactoredEv
FN:28,_ZN14KeyPushManager13onKeyboardHitEv
FN:62,_ZN14KeyPushManager6moveUpEv
FN:92,_ZN14KeyPushManager8moveDownEv
FN:121,_ZN14KeyPushManager8moveLeftEv
FN:150,_ZN14KeyPushManager9moveRightEv
FN:179,_ZNK14KeyPushManager12getGameBoardEv
FN:183,_ZN14KeyPushManager7setMKeyEi
FNDA:4,_ZN14KeyPushManager6moveUpEv
FNDA:16,_ZN14KeyPushManagerC2ER4Game
FNDA:0,_ZN14KeyPushManager23onKeyboardHitRefactoredEv
FNDA:4,_ZN14KeyPushManager9moveRightEv
FNDA:0,_ZN14KeyPushManager11waitKeyPushEv
FNDA:16,_ZN14KeyPushManager7setMKeyEi
FNDA:4,_ZN14KeyPushManager8moveLeftEv
FNDA:4,_ZN14KeyPushManager8moveDownEv
FNDA:16,_ZNK14KeyPushManager12getGameBoardEv
FNDA:16,_ZN14KeyPushManager13onKeyboardHitEv
FNF:10
FNH:8
DA:3,16
DA:5,16
DA:6,16
DA:8,0
DA:10,0
DA:11,0
DA:12,0
DA:14,0
DA:15,0
DA:17,0
DA:19,0
DA:20,0
DA:22,0
DA:24,0
DA:25,0
DA:26,0
DA:28,16
DA:30,16
DA:31,16
DA:33,4
DA:36,4
DA:38,4
DA:39,4
DA:42,4
DA:44,4
DA:45,4
DA:48,4
DA:50,4
DA:51,4
DA:54,4
DA:56,4
DA:58,16
DA:60,16
DA:62,4
DA:64,20
DA:66,64
DA:68,288
DA:70,240
DA:73,92
DA:74,164
DA:75,72
DA:78,27
DA:80,7
DA:82,27
DA:83,27
DA:84,27
DA:90,4
DA:92,4
DA:94,20
DA:96,64
DA:98,288
DA:100,240
DA:102,84
DA:103,159
DA:104,75
DA:107,16
DA:109,7
DA:111,16
DA:112,16
DA:113,16
DA:119,4
DA:121,4
DA:123,20
DA:125,80
DA:127,320
DA:129,256
DA:131,103
DA:132,182
DA:133,79
DA:136,31
DA:138,7
DA:140,31
DA:141,31
DA:142,31
DA:148,4
DA:150,4
DA:152,20
DA:154,80
DA:156,320
DA:158,256
DA:160,103
DA:161,183
DA:162,80
DA:165,30
DA:167,7
DA:169,30
DA:170,30
DA:171,30
DA:177,4
DA:179,16
DA:180,16
DA:183,16
DA:184,16
DA:185,16
LF:94
LH:81
end_of_record
TN:
SF:/home/nevena/VS/2048/src/Utils.cpp
FN:5,_ZN5Utils8randEvenEi
FNDA:8,_ZN5Utils8randEvenEi
FNF:1
FNH:1
DA:5,8
DA:7,8
DA:9,8
DA:11,0
DA:13,8
DA:15,7
DA:18,8
LF:7
LH:6
end_of_record
